target datalayout = "e-m:e-p270:32:32-p271:32:32-p272:64:64-i64:64-i128:128-f80:128-n8:16:32:64-S128"
target triple = "x86_64-pc-linux-gnu"

%struct._zval_struct = type { %union._zend_value, %union.anon, %union.anon.2 }
%union._zend_value = type { i64 }
%union.anon = type { i32 }
%union.anon.2 = type { i32 }
%struct._zend_execute_data = type { ptr, ptr, ptr, ptr, %struct._zval_struct, ptr, ptr, ptr, ptr }

; Function Attrs: nounwind uwtable
define hidden void @zif_memory_get_usage(ptr noundef %0, ptr noundef %1) #0 {
  %3 = alloca ptr, align 8
  %4 = alloca ptr, align 8
  %5 = alloca ptr, align 8
  %6 = alloca i1, align 1
  %7 = alloca ptr, align 8
  %8 = alloca ptr, align 8
  %9 = alloca ptr, align 8
  %10 = alloca i8, align 1
  %11 = alloca i32, align 4
  %12 = alloca i8, align 1
  %13 = alloca ptr, align 8
  %14 = alloca ptr, align 8
  %15 = alloca ptr, align 8
  %16 = alloca i8, align 1
  %17 = alloca i32, align 4
  %18 = alloca ptr, align 8
  %19 = alloca ptr, align 8
  %20 = alloca i8, align 1
  %21 = alloca i32, align 4
  %22 = alloca i32, align 4
  %23 = alloca i32, align 4
  %24 = alloca i32, align 4
  %25 = alloca i32, align 4
  %26 = alloca ptr, align 8
  %27 = alloca ptr, align 8
  %28 = alloca i32, align 4
  %29 = alloca ptr, align 8
  %30 = alloca i8, align 1
  %31 = alloca i8, align 1
  %32 = alloca i32, align 4
  %33 = alloca ptr, align 8
  store ptr %0, ptr %18, align 8
  store ptr %1, ptr %19, align 8
  store i8 0, ptr %20, align 1
  br label %34

34:                                               ; preds = %2
  store i32 0, ptr %21, align 4
  store i32 0, ptr %22, align 4
  store i32 1, ptr %23, align 4
  %35 = load ptr, ptr %18, align 8
  %36 = getelementptr inbounds %struct._zend_execute_data, ptr %35, i32 0, i32 4
  %37 = getelementptr inbounds %struct._zval_struct, ptr %36, i32 0, i32 2
  %38 = load i32, ptr %37, align 4
  store i32 %38, ptr %24, align 4
  store i32 0, ptr %25, align 4
  store ptr null, ptr %27, align 8
  store i32 0, ptr %28, align 4
  store ptr null, ptr %29, align 8
  store i8 0, ptr %30, align 1
  store i8 0, ptr %31, align 1
  store i32 0, ptr %32, align 4
  br label %39

39:                                               ; preds = %34
  %40 = load i32, ptr %24, align 4
  %41 = load i32, ptr %22, align 4
  %42 = icmp ult i32 %40, %41
  %43 = xor i1 %42, true
  %44 = xor i1 %43, true
  %45 = zext i1 %44 to i32
  %46 = sext i32 %45 to i64
  %47 = icmp ne i64 %46, 0
  br i1 %47, label %57, label %48

48:                                               ; preds = %39
  %49 = load i32, ptr %24, align 4
  %50 = load i32, ptr %23, align 4
  %51 = icmp ugt i32 %49, %50
  %52 = xor i1 %51, true
  %53 = xor i1 %52, true
  %54 = zext i1 %53 to i32
  %55 = sext i32 %54 to i64
  %56 = icmp ne i64 %55, 0
  br i1 %56, label %57, label %60

57:                                               ; preds = %48, %39
  %58 = load i32, ptr %22, align 4
  %59 = load i32, ptr %23, align 4
  call void @zend_wrong_parameters_count_error(i32 noundef %58, i32 noundef %59)
  store i32 1, ptr %32, align 4
  br label %179

60:                                               ; preds = %48
  %61 = load ptr, ptr %18, align 8
  %62 = getelementptr inbounds %struct._zval_struct, ptr %61, i64 4
  store ptr %62, ptr %26, align 8
  store i8 1, ptr %31, align 1
  %63 = load i32, ptr %25, align 4
  %64 = add i32 %63, 1
  store i32 %64, ptr %25, align 4
  %65 = load i32, ptr %25, align 4
  %66 = load i32, ptr %22, align 4
  %67 = icmp ule i32 %65, %66
  br i1 %67, label %73, label %68

68:                                               ; preds = %60
  %69 = load i8, ptr %31, align 1
  %70 = trunc i8 %69 to i1
  %71 = zext i1 %70 to i32
  %72 = icmp eq i32 %71, 1
  br label %73

73:                                               ; preds = %68, %60
  %74 = phi i1 [ true, %60 ], [ %72, %68 ]
  call void @llvm.assume(i1 %74)
  %75 = load i32, ptr %25, align 4
  %76 = load i32, ptr %22, align 4
  %77 = icmp ugt i32 %75, %76
  br i1 %77, label %83, label %78

78:                                               ; preds = %73
  %79 = load i8, ptr %31, align 1
  %80 = trunc i8 %79 to i1
  %81 = zext i1 %80 to i32
  %82 = icmp eq i32 %81, 0
  br label %83

83:                                               ; preds = %78, %73
  %84 = phi i1 [ true, %73 ], [ %82, %78 ]
  call void @llvm.assume(i1 %84)
  %85 = load i8, ptr %31, align 1
  %86 = trunc i8 %85 to i1
  br i1 %86, label %87, label %98

87:                                               ; preds = %83
  %88 = load i32, ptr %25, align 4
  %89 = load i32, ptr %24, align 4
  %90 = icmp ugt i32 %88, %89
  %91 = xor i1 %90, true
  %92 = xor i1 %91, true
  %93 = zext i1 %92 to i32
  %94 = sext i32 %93 to i64
  %95 = icmp ne i64 %94, 0
  br i1 %95, label %96, label %97

96:                                               ; preds = %87
  br label %179

97:                                               ; preds = %87
  br label %98

98:                                               ; preds = %97, %83
  %99 = load ptr, ptr %26, align 8
  %100 = getelementptr inbounds %struct._zval_struct, ptr %99, i32 1
  store ptr %100, ptr %26, align 8
  %101 = load ptr, ptr %26, align 8
  store ptr %101, ptr %27, align 8
  %102 = load ptr, ptr %27, align 8
  %103 = load i32, ptr %25, align 4
  store ptr %102, ptr %13, align 8
  store ptr %20, ptr %14, align 8
  store ptr %30, ptr %15, align 8
  store i8 0, ptr %16, align 1
  store i32 %103, ptr %17, align 4
  %104 = load ptr, ptr %13, align 8
  %105 = load ptr, ptr %14, align 8
  %106 = load ptr, ptr %15, align 8
  %107 = load i8, ptr %16, align 1
  %108 = trunc i8 %107 to i1
  %109 = load i32, ptr %17, align 4
  store ptr %104, ptr %7, align 8
  store ptr %105, ptr %8, align 8
  store ptr %106, ptr %9, align 8
  %110 = zext i1 %108 to i8
  store i8 %110, ptr %10, align 1
  store i32 %109, ptr %11, align 4
  store i8 0, ptr %12, align 1
  %111 = load i8, ptr %10, align 1
  %112 = trunc i8 %111 to i1
  br i1 %112, label %113, label %115

113:                                              ; preds = %98
  %114 = load ptr, ptr %9, align 8
  store i8 0, ptr %114, align 1
  br label %115

115:                                              ; preds = %113, %98
  %116 = load ptr, ptr %7, align 8
  store ptr %116, ptr %3, align 8
  %117 = load ptr, ptr %3, align 8
  %118 = getelementptr inbounds %struct._zval_struct, ptr %117, i32 0, i32 1
  %119 = load i8, ptr %118, align 8
  %120 = zext i8 %119 to i32
  %121 = icmp eq i32 %120, 3
  br i1 %121, label %122, label %124

122:                                              ; preds = %115
  %123 = load ptr, ptr %8, align 8
  store i8 1, ptr %123, align 1
  br label %160

124:                                              ; preds = %115
  %125 = load ptr, ptr %7, align 8
  store ptr %125, ptr %4, align 8
  %126 = load ptr, ptr %4, align 8
  %127 = getelementptr inbounds %struct._zval_struct, ptr %126, i32 0, i32 1
  %128 = load i8, ptr %127, align 8
  %129 = zext i8 %128 to i32
  %130 = icmp eq i32 %129, 2
  br i1 %130, label %131, label %133

131:                                              ; preds = %124
  %132 = load ptr, ptr %8, align 8
  store i8 0, ptr %132, align 1
  br label %159

133:                                              ; preds = %124
  %134 = load i8, ptr %10, align 1
  %135 = trunc i8 %134 to i1
  br i1 %135, label %136, label %146

136:                                              ; preds = %133
  %137 = load ptr, ptr %7, align 8
  store ptr %137, ptr %5, align 8
  %138 = load ptr, ptr %5, align 8
  %139 = getelementptr inbounds %struct._zval_struct, ptr %138, i32 0, i32 1
  %140 = load i8, ptr %139, align 8
  %141 = zext i8 %140 to i32
  %142 = icmp eq i32 %141, 1
  br i1 %142, label %143, label %146

143:                                              ; preds = %136
  %144 = load ptr, ptr %9, align 8
  store i8 1, ptr %144, align 1
  %145 = load ptr, ptr %8, align 8
  store i8 0, ptr %145, align 1
  br label %159

146:                                              ; preds = %136, %133
  %147 = load i8, ptr %12, align 1
  %148 = trunc i8 %147 to i1
  br i1 %148, label %149, label %154

149:                                              ; preds = %146
  %150 = load ptr, ptr %7, align 8
  %151 = load ptr, ptr %8, align 8
  %152 = load i32, ptr %11, align 4
  %153 = call zeroext i1 @zend_flf_parse_arg_bool_slow(ptr noundef %150, ptr noundef %151, i32 noundef %152) #11
  store i1 %153, ptr %6, align 1
  br label %161

154:                                              ; preds = %146
  %155 = load ptr, ptr %7, align 8
  %156 = load ptr, ptr %8, align 8
  %157 = load i32, ptr %11, align 4
  %158 = call zeroext i1 @zend_parse_arg_bool_slow(ptr noundef %155, ptr noundef %156, i32 noundef %157) #11
  store i1 %158, ptr %6, align 1
  br label %161

159:                                              ; preds = %143, %131
  br label %160

160:                                              ; preds = %159, %122
  store i1 true, ptr %6, align 1
  br label %161

161:                                              ; preds = %160, %154, %149
  %162 = load i1, ptr %6, align 1
  %163 = xor i1 %162, true
  %164 = xor i1 %163, true
  %165 = xor i1 %164, true
  %166 = zext i1 %165 to i32
  %167 = sext i32 %166 to i64
  %168 = icmp ne i64 %167, 0
  br i1 %168, label %169, label %170

169:                                              ; preds = %161
  store i32 2, ptr %28, align 4
  store i32 9, ptr %32, align 4
  br label %179

170:                                              ; preds = %161
  %171 = load i32, ptr %25, align 4
  %172 = load i32, ptr %23, align 4
  %173 = icmp eq i32 %171, %172
  br i1 %173, label %177, label %174

174:                                              ; preds = %170
  %175 = load i32, ptr %23, align 4
  %176 = icmp eq i32 %175, -1
  br label %177

177:                                              ; preds = %174, %170
  %178 = phi i1 [ true, %170 ], [ %176, %174 ]
  call void @llvm.assume(i1 %178)
  br label %179

179:                                              ; preds = %177, %169, %96, %57
  %180 = load i32, ptr %32, align 4
  %181 = icmp ne i32 %180, 0
  %182 = xor i1 %181, true
  %183 = xor i1 %182, true
  %184 = zext i1 %183 to i32
  %185 = sext i32 %184 to i64
  %186 = icmp ne i64 %185, 0
  br i1 %186, label %187, label %193

187:                                              ; preds = %179
  %188 = load i32, ptr %32, align 4
  %189 = load i32, ptr %25, align 4
  %190 = load ptr, ptr %29, align 8
  %191 = load i32, ptr %28, align 4
  %192 = load ptr, ptr %27, align 8
  call void @zend_wrong_parameter_error(i32 noundef %188, i32 noundef %189, ptr noundef %190, i32 noundef %191, ptr noundef %192)
  br label %206

193:                                              ; preds = %179
  br label %194

194:                                              ; preds = %193
  br label %195

195:                                              ; preds = %194
  br label %196

196:                                              ; preds = %195
  %197 = load ptr, ptr %19, align 8
  store ptr %197, ptr %33, align 8
  %198 = load i8, ptr %20, align 1
  %199 = trunc i8 %198 to i1
  %200 = call i64 @zend_memory_usage(i1 noundef zeroext %199)
  %201 = load ptr, ptr %33, align 8
  %202 = getelementptr inbounds %struct._zval_struct, ptr %201, i32 0, i32 0
  store i64 %200, ptr %202, align 8
  %203 = load ptr, ptr %33, align 8
  %204 = getelementptr inbounds %struct._zval_struct, ptr %203, i32 0, i32 1
  store i32 4, ptr %204, align 8
  br label %205

205:                                              ; preds = %196
  br label %206

206:                                              ; preds = %205, %187
  ret void
}